target datalayout = "e-m:e-p270:32:32-p271:32:32-p272:64:64-i64:64-i128:128-f80:128-n8:16:32:64-S128"
target triple = "x86_64-unknown-linux-gnu"

%class.symbol = type { ptr }
%class.expr_rand = type { ptr, i32, %class.random_gen, %class.ref_vector, %class.obj_map }
%class.random_gen = type { i32 }
%class.ref_vector = type { %class.ref_vector_core }
%class.ref_vector_core = type { %class.ref_manager_wrapper, %class.ptr_vector }
%class.ref_manager_wrapper = type { ptr }
%class.ptr_vector = type { %class.vector }
%class.vector = type { ptr }
%class.obj_map = type { %class.core_hashtable }
%class.core_hashtable = type <{ ptr, i32, i32, i32, [4 x i8] }>

@.str = private unnamed_addr constant [2 x i8] c"x\00", align 1
@_ZN6symbol4nullE = external global %class.symbol, align 8

; Function Attrs: mustprogress uwtable
define linkonce_odr hidden noundef ptr @_ZN11ast_manager8mk_constEP9func_decl(ptr noundef nonnull align 8 dereferenceable(976) %this, ptr noundef %decl) #4 comdat align 2 {
entry:
  %this.addr = alloca ptr, align 8
  %decl.addr = alloca ptr, align 8
  store ptr %this, ptr %this.addr, align 8
  store ptr %decl, ptr %decl.addr, align 8
  %this1 = load ptr, ptr %this.addr, align 8
  %0 = load ptr, ptr %decl.addr, align 8
  %call = call noundef ptr @_ZN11ast_manager6mk_appEP9func_decljPKP4expr(ptr noundef nonnull align 8 dereferenceable(976) %this1, ptr noundef %0, i32 noundef 0, ptr noundef null)
  ret ptr %call
}

; Function Attrs: mustprogress uwtable
define linkonce_odr hidden noundef ptr @_ZN11ast_manager18mk_fresh_func_declEPKcjPKP4sortS3_b(ptr noundef nonnull align 8 dereferenceable(976) %this, ptr noundef %prefix, i32 noundef %arity, ptr noundef %domain, ptr noundef %range, i1 noundef zeroext %skolem) #4 comdat align 2 {
entry:
  %this.addr = alloca ptr, align 8
  %prefix.addr = alloca ptr, align 8
  %arity.addr = alloca i32, align 4
  %domain.addr = alloca ptr, align 8
  %range.addr = alloca ptr, align 8
  %skolem.addr = alloca i8, align 1
  %ref.tmp = alloca %class.symbol, align 8
  store ptr %this, ptr %this.addr, align 8
  store ptr %prefix, ptr %prefix.addr, align 8
  store i32 %arity, ptr %arity.addr, align 4
  store ptr %domain, ptr %domain.addr, align 8
  store ptr %range, ptr %range.addr, align 8
  %frombool = zext i1 %skolem to i8
  store i8 %frombool, ptr %skolem.addr, align 1
  %this1 = load ptr, ptr %this.addr, align 8
  %0 = load ptr, ptr %prefix.addr, align 8
  call void @_ZN6symbolC1EPKc(ptr noundef nonnull align 8 dereferenceable(8) %ref.tmp, ptr noundef %0)
  %1 = load i32, ptr %arity.addr, align 4
  %2 = load ptr, ptr %domain.addr, align 8
  %3 = load ptr, ptr %range.addr, align 8
  %4 = load i8, ptr %skolem.addr, align 1
  %tobool = trunc i8 %4 to i1
  %call = call noundef ptr @_ZN11ast_manager18mk_fresh_func_declERK6symbolS2_jPKP4sortS4_b(ptr noundef nonnull align 8 dereferenceable(976) %this1, ptr noundef nonnull align 8 dereferenceable(8) %ref.tmp, ptr noundef nonnull align 8 dereferenceable(8) @_ZN6symbol4nullE, i32 noundef %1, ptr noundef %2, ptr noundef %3, i1 noundef zeroext %tobool)
  ret ptr %call
}

; Function Attrs: mustprogress uwtable
define linkonce_odr hidden noundef ptr @_ZN11ast_manager14mk_fresh_constEPKcP4sortb(ptr noundef nonnull align 8 dereferenceable(976) %this, ptr noundef %prefix, ptr noundef %s, i1 noundef zeroext %skolem) #4 comdat align 2 {
entry:
  %this.addr = alloca ptr, align 8
  %prefix.addr = alloca ptr, align 8
  %s.addr = alloca ptr, align 8
  %skolem.addr = alloca i8, align 1
  store ptr %this, ptr %this.addr, align 8
  store ptr %prefix, ptr %prefix.addr, align 8
  store ptr %s, ptr %s.addr, align 8
  %frombool = zext i1 %skolem to i8
  store i8 %frombool, ptr %skolem.addr, align 1
  %this1 = load ptr, ptr %this.addr, align 8
  %0 = load ptr, ptr %prefix.addr, align 8
  %1 = load ptr, ptr %s.addr, align 8
  %2 = load i8, ptr %skolem.addr, align 1
  %tobool = trunc i8 %2 to i1
  %call = call noundef ptr @_ZN11ast_manager18mk_fresh_func_declEPKcjPKP4sortS3_b(ptr noundef nonnull align 8 dereferenceable(976) %this1, ptr noundef %0, i32 noundef 0, ptr noundef null, ptr noundef %1, i1 noundef zeroext %tobool)
  %call2 = call noundef ptr @_ZN11ast_manager8mk_constEP9func_decl(ptr noundef nonnull align 8 dereferenceable(976) %this1, ptr noundef %call)
  ret ptr %call2
}

; Function Attrs: mustprogress uwtable
define hidden void @_ZN9expr_rand7add_varEP4sort(ptr noundef nonnull align 8 dereferenceable(56) %this, ptr noundef %s) #4 align 2 {
entry:
  %this.addr = alloca ptr, align 8
  %s.addr = alloca ptr, align 8
  store ptr %this, ptr %this.addr, align 8
  store ptr %s, ptr %s.addr, align 8
  %this1 = load ptr, ptr %this.addr, align 8
  %m_manager = getelementptr inbounds %class.expr_rand, ptr %this1, i32 0, i32 0
  %0 = load ptr, ptr %m_manager, align 8
  %1 = load ptr, ptr %s.addr, align 8
  %call = call noundef ptr @_ZN11ast_manager14mk_fresh_constEPKcP4sortb(ptr noundef nonnull align 8 dereferenceable(976) %0, ptr noundef @.str, ptr noundef %1, i1 noundef zeroext true)
  call void @_ZN9expr_rand8add_exprEP4expr(ptr noundef nonnull align 8 dereferenceable(56) %this1, ptr noundef %call)
  ret void
}