; Function Attrs: mustprogress uwtable
define hidden void @_ZN9expr_rand7add_varEP4sort(ptr noundef nonnull align 8 dereferenceable(56) %this, ptr noundef %s) local_unnamed_addr #3 align 2 {
entry:
  %ref.tmp.i.i = alloca %class.symbol, align 8
  %0 = load ptr, ptr %this, align 8
  call void @llvm.lifetime.start.p0(i64 8, ptr nonnull %ref.tmp.i.i)
  call void @_ZN6symbolC1EPKc(ptr noundef nonnull align 8 dereferenceable(8) %ref.tmp.i.i, ptr noundef nonnull @.str)
  %call.i.i = call noundef ptr @_ZN11ast_manager18mk_fresh_func_declERK6symbolS2_jPKP4sortS4_b(ptr noundef nonnull align 8 dereferenceable(976) %0, ptr noundef nonnull align 8 dereferenceable(8) %ref.tmp.i.i, ptr noundef nonnull align 8 dereferenceable(8) @_ZN6symbol4nullE, i32 noundef 0, ptr noundef null, ptr noundef %s, i1 noundef zeroext true)
  call void @llvm.lifetime.end.p0(i64 8, ptr nonnull %ref.tmp.i.i)
  %call.i1.i = call noundef ptr @_ZN11ast_manager6mk_appEP9func_decljPKP4expr(ptr noundef nonnull align 8 dereferenceable(976) %0, ptr noundef %call.i.i, i32 noundef 0, ptr noundef null)
  call void @_ZN9expr_rand8add_exprEP4expr(ptr noundef nonnull align 8 dereferenceable(56) %this, ptr noundef %call.i1.i)
  ret void
}